target datalayout = "e-m:e-p270:32:32-p271:32:32-p272:64:64-i64:64-i128:128-f80:128-n8:16:32:64-S128"
target triple = "x86_64-pc-linux-gnu"

; Function Attrs: mustprogress nounwind uwtable
define noundef zeroext i1 @_Z7IsSpacei(i32 noundef %0) #0 {
  %2 = alloca i32, align 4
  store i32 %0, ptr %2, align 4
  %3 = load i32, ptr %2, align 4
  %4 = icmp eq i32 %3, 32
  br i1 %4, label %8, label %5

5:                                                ; preds = %1
  %6 = load i32, ptr %2, align 4
  %7 = icmp eq i32 %6, 9
  br label %8

8:                                                ; preds = %5, %1
  %9 = phi i1 [ true, %1 ], [ %7, %5 ]
  ret i1 %9
}

; Function Attrs: mustprogress nounwind uwtable
define noundef ptr @_Z11GetCmdParamPKwPwm(ptr noundef %0, ptr noundef %1, i64 noundef %2) #0 {
  %4 = alloca ptr, align 8
  %5 = alloca ptr, align 8
  %6 = alloca ptr, align 8
  %7 = alloca i64, align 8
  %8 = alloca i64, align 8
  %9 = alloca i8, align 1
  store ptr %0, ptr %5, align 8
  store ptr %1, ptr %6, align 8
  store i64 %2, ptr %7, align 8
  br label %10

10:                                               ; preds = %14, %3
  %11 = load ptr, ptr %5, align 8
  %12 = load i32, ptr %11, align 4
  %13 = call noundef zeroext i1 @_Z7IsSpacei(i32 noundef %12)
  br i1 %13, label %14, label %17

14:                                               ; preds = %10
  %15 = load ptr, ptr %5, align 8
  %16 = getelementptr inbounds i32, ptr %15, i32 1
  store ptr %16, ptr %5, align 8
  br label %10, !llvm.loop !20

17:                                               ; preds = %10
  %18 = load ptr, ptr %5, align 8
  %19 = load i32, ptr %18, align 4
  %20 = icmp eq i32 %19, 0
  br i1 %20, label %21, label %22

21:                                               ; preds = %17
  store ptr null, ptr %4, align 8
  br label %98

22:                                               ; preds = %17
  store i64 0, ptr %8, align 8
  store i8 0, ptr %9, align 1
  br label %23

23:                                               ; preds = %86, %22
  %24 = load ptr, ptr %5, align 8
  %25 = load i32, ptr %24, align 4
  %26 = icmp ne i32 %25, 0
  br i1 %26, label %27, label %37

27:                                               ; preds = %23
  %28 = load i8, ptr %9, align 1
  %29 = trunc i8 %28 to i1
  br i1 %29, label %35, label %30

30:                                               ; preds = %27
  %31 = load ptr, ptr %5, align 8
  %32 = load i32, ptr %31, align 4
  %33 = call noundef zeroext i1 @_Z7IsSpacei(i32 noundef %32)
  %34 = xor i1 %33, true
  br label %35

35:                                               ; preds = %30, %27
  %36 = phi i1 [ true, %27 ], [ %34, %30 ]
  br label %37

37:                                               ; preds = %35, %23
  %38 = phi i1 [ false, %23 ], [ %36, %35 ]
  br i1 %38, label %39, label %89

39:                                               ; preds = %37
  %40 = load ptr, ptr %5, align 8
  %41 = load i32, ptr %40, align 4
  %42 = icmp eq i32 %41, 34
  br i1 %42, label %43, label %70

43:                                               ; preds = %39
  %44 = load ptr, ptr %5, align 8
  %45 = getelementptr inbounds i32, ptr %44, i64 1
  %46 = load i32, ptr %45, align 4
  %47 = icmp eq i32 %46, 34
  br i1 %47, label %48, label %64

48:                                               ; preds = %43
  %49 = load ptr, ptr %6, align 8
  %50 = icmp ne ptr %49, null
  br i1 %50, label %51, label %61

51:                                               ; preds = %48
  %52 = load i64, ptr %8, align 8
  %53 = load i64, ptr %7, align 8
  %54 = sub i64 %53, 1
  %55 = icmp ult i64 %52, %54
  br i1 %55, label %56, label %61

56:                                               ; preds = %51
  %57 = load ptr, ptr %6, align 8
  %58 = load i64, ptr %8, align 8
  %59 = add i64 %58, 1
  store i64 %59, ptr %8, align 8
  %60 = getelementptr inbounds i32, ptr %57, i64 %58
  store i32 34, ptr %60, align 4
  br label %61

61:                                               ; preds = %56, %51, %48
  %62 = load ptr, ptr %5, align 8
  %63 = getelementptr inbounds i32, ptr %62, i32 1
  store ptr %63, ptr %5, align 8
  br label %69

64:                                               ; preds = %43
  %65 = load i8, ptr %9, align 1
  %66 = trunc i8 %65 to i1
  %67 = xor i1 %66, true
  %68 = zext i1 %67 to i8
  store i8 %68, ptr %9, align 1
  br label %69

69:                                               ; preds = %64, %61
  br label %86

70:                                               ; preds = %39
  %71 = load ptr, ptr %6, align 8
  %72 = icmp ne ptr %71, null
  br i1 %72, label %73, label %85

73:                                               ; preds = %70
  %74 = load i64, ptr %8, align 8
  %75 = load i64, ptr %7, align 8
  %76 = sub i64 %75, 1
  %77 = icmp ult i64 %74, %76
  br i1 %77, label %78, label %85

78:                                               ; preds = %73
  %79 = load ptr, ptr %5, align 8
  %80 = load i32, ptr %79, align 4
  %81 = load ptr, ptr %6, align 8
  %82 = load i64, ptr %8, align 8
  %83 = add i64 %82, 1
  store i64 %83, ptr %8, align 8
  %84 = getelementptr inbounds i32, ptr %81, i64 %82
  store i32 %80, ptr %84, align 4
  br label %85

85:                                               ; preds = %78, %73, %70
  br label %86

86:                                               ; preds = %85, %69
  %87 = load ptr, ptr %5, align 8
  %88 = getelementptr inbounds i32, ptr %87, i32 1
  store ptr %88, ptr %5, align 8
  br label %23, !llvm.loop !21

89:                                               ; preds = %37
  %90 = load ptr, ptr %6, align 8
  %91 = icmp ne ptr %90, null
  br i1 %91, label %92, label %96

92:                                               ; preds = %89
  %93 = load ptr, ptr %6, align 8
  %94 = load i64, ptr %8, align 8
  %95 = getelementptr inbounds i32, ptr %93, i64 %94
  store i32 0, ptr %95, align 4
  br label %96

96:                                               ; preds = %92, %89
  %97 = load ptr, ptr %5, align 8
  store ptr %97, ptr %4, align 8
  br label %98

98:                                               ; preds = %96, %21
  %99 = load ptr, ptr %4, align 8
  ret ptr %99
}