; Function Attrs: mustprogress nofree norecurse nosync nounwind memory(read, argmem: readwrite, inaccessiblemem: none) uwtable
define noundef ptr @_Z11GetCmdParamPKwPwm(ptr noundef readonly %0, ptr noundef writeonly %1, i64 noundef %2) local_unnamed_addr #14 {
  br label %4

4:                                                ; preds = %17, %3
  %.031 = phi ptr [ %0, %3 ], [ %18, %17 ]
  %5 = load i32, ptr %.031, align 4
  switch i32 %5, label %.lr.ph [
    i32 32, label %17
    i32 9, label %17
    i32 0, label %.loopexit
  ]

.lr.ph:                                           ; preds = %4
  %.not40.not = icmp eq ptr %1, null
  %6 = add i64 %2, -1
  br i1 %.not40.not, label %.lr.ph.split.us.split.us, label %.lr.ph.split.split

.lr.ph.split.us.split.us:                         ; preds = %.lr.ph, %14
  %7 = phi i32 [ %16, %14 ], [ %5, %.lr.ph ]
  %.049.us.us = phi i1 [ %.1.us.us, %14 ], [ false, %.lr.ph ]
  %.13247.us.us = phi ptr [ %15, %14 ], [ %.031, %.lr.ph ]
  br i1 %.049.us.us, label %.critedge2.us.us, label %8

8:                                                ; preds = %.lr.ph.split.us.split.us
  switch i32 %7, label %14 [
    i32 32, label %.critedge
    i32 9, label %.critedge
    i32 34, label %10
  ]

.critedge2.us.us:                                 ; preds = %.lr.ph.split.us.split.us
  %9 = icmp eq i32 %7, 34
  br i1 %9, label %10, label %14

10:                                               ; preds = %.critedge2.us.us, %8
  %11 = getelementptr inbounds i8, ptr %.13247.us.us, i64 4
  %12 = load i32, ptr %11, align 4
  %13 = icmp ne i32 %12, 34
  %spec.select = select i1 %13, ptr %.13247.us.us, ptr %11
  %spec.select89 = xor i1 %.049.us.us, %13
  br label %14

14:                                               ; preds = %10, %8, %.critedge2.us.us
  %.233.us.us = phi ptr [ %.13247.us.us, %.critedge2.us.us ], [ %.13247.us.us, %8 ], [ %spec.select, %10 ]
  %.1.us.us = phi i1 [ true, %.critedge2.us.us ], [ false, %8 ], [ %spec.select89, %10 ]
  %15 = getelementptr inbounds i8, ptr %.233.us.us, i64 4
  %16 = load i32, ptr %15, align 4
  %.not.us.us = icmp eq i32 %16, 0
  br i1 %.not.us.us, label %.critedge, label %.lr.ph.split.us.split.us, !llvm.loop !20

17:                                               ; preds = %4, %4
  %18 = getelementptr inbounds i8, ptr %.031, i64 4
  br label %4, !llvm.loop !21

.lr.ph.split.split:                               ; preds = %.lr.ph, %38
  %19 = phi i32 [ %40, %38 ], [ %5, %.lr.ph ]
  %.049 = phi i1 [ %.1, %38 ], [ false, %.lr.ph ]
  %.02848 = phi i64 [ %.2, %38 ], [ 0, %.lr.ph ]
  %.13247 = phi ptr [ %39, %38 ], [ %.031, %.lr.ph ]
  br i1 %.049, label %.critedge2, label %20

20:                                               ; preds = %.lr.ph.split.split
  switch i32 %19, label %33 [
    i32 32, label %.critedge
    i32 9, label %.critedge
    i32 34, label %22
  ]

.critedge2:                                       ; preds = %.lr.ph.split.split
  %21 = icmp eq i32 %19, 34
  br i1 %21, label %22, label %33

22:                                               ; preds = %20, %.critedge2
  %23 = getelementptr inbounds i8, ptr %.13247, i64 4
  %24 = load i32, ptr %23, align 4
  %25 = icmp eq i32 %24, 34
  br i1 %25, label %26, label %31

26:                                               ; preds = %22
  %27 = icmp ult i64 %.02848, %6
  br i1 %27, label %28, label %38

28:                                               ; preds = %26
  %29 = add nuw i64 %.02848, 1
  %30 = getelementptr inbounds i32, ptr %1, i64 %.02848
  store i32 34, ptr %30, align 4
  br label %38

31:                                               ; preds = %22
  %32 = xor i1 %.049, true
  br label %38

33:                                               ; preds = %20, %.critedge2
  %34 = icmp ult i64 %.02848, %6
  br i1 %34, label %35, label %38

35:                                               ; preds = %33
  %36 = add nuw i64 %.02848, 1
  %37 = getelementptr inbounds i32, ptr %1, i64 %.02848
  store i32 %19, ptr %37, align 4
  br label %38

38:                                               ; preds = %26, %28, %33, %35, %31
  %.233 = phi ptr [ %.13247, %31 ], [ %.13247, %35 ], [ %.13247, %33 ], [ %23, %28 ], [ %23, %26 ]
  %.2 = phi i64 [ %.02848, %31 ], [ %36, %35 ], [ %.02848, %33 ], [ %29, %28 ], [ %.02848, %26 ]
  %.1 = phi i1 [ %32, %31 ], [ %.049, %35 ], [ %.049, %33 ], [ %.049, %28 ], [ %.049, %26 ]
  %39 = getelementptr inbounds i8, ptr %.233, i64 4
  %40 = load i32, ptr %39, align 4
  %.not = icmp eq i32 %40, 0
  br i1 %.not, label %.critedge, label %.lr.ph.split.split, !llvm.loop !20

.critedge:                                        ; preds = %38, %20, %20, %14, %8, %8
  %.132.lcssa = phi ptr [ %.13247.us.us, %8 ], [ %.13247.us.us, %8 ], [ %15, %14 ], [ %.13247, %20 ], [ %.13247, %20 ], [ %39, %38 ]
  %.028.lcssa = phi i64 [ 0, %8 ], [ 0, %8 ], [ 0, %14 ], [ %.02848, %20 ], [ %.02848, %20 ], [ %.2, %38 ]
  %.not39 = icmp eq ptr %1, null
  br i1 %.not39, label %.loopexit, label %41

41:                                               ; preds = %.critedge
  %42 = getelementptr inbounds i32, ptr %1, i64 %.028.lcssa
  store i32 0, ptr %42, align 4
  br label %.loopexit

.loopexit:                                        ; preds = %4, %.critedge, %41
  %.030 = phi ptr [ %.132.lcssa, %41 ], [ %.132.lcssa, %.critedge ], [ null, %4 ]
  ret ptr %.030
}